target datalayout = "e-m:e-p270:32:32-p271:32:32-p272:64:64-i64:64-i128:128-f80:128-n8:16:32:64-S128"
target triple = "x86_64-pc-linux-gnu"

%"struct.ue2::(anonymous namespace)::ranking_info" = type { %"class.std::vector", %"class.std::unordered_map" }
%"class.std::vector" = type { %"struct.std::_Vector_base" }
%"struct.std::_Vector_base" = type { %"struct.std::_Vector_base<ue2::graph_detail::vertex_descriptor<ue2::ue2_graph<ue2::NGHolder, ue2::NFAGraphVertexProps, ue2::NFAGraphEdgeProps>>, std::allocator<ue2::graph_detail::vertex_descriptor<ue2::ue2_graph<ue2::NGHolder, ue2::NFAGraphVertexProps, ue2::NFAGraphEdgeProps>>>>::_Vector_impl" }
%"struct.std::_Vector_base<ue2::graph_detail::vertex_descriptor<ue2::ue2_graph<ue2::NGHolder, ue2::NFAGraphVertexProps, ue2::NFAGraphEdgeProps>>, std::allocator<ue2::graph_detail::vertex_descriptor<ue2::ue2_graph<ue2::NGHolder, ue2::NFAGraphVertexProps, ue2::NFAGraphEdgeProps>>>>::_Vector_impl" = type { %"struct.std::_Vector_base<ue2::graph_detail::vertex_descriptor<ue2::ue2_graph<ue2::NGHolder, ue2::NFAGraphVertexProps, ue2::NFAGraphEdgeProps>>, std::allocator<ue2::graph_detail::vertex_descriptor<ue2::ue2_graph<ue2::NGHolder, ue2::NFAGraphVertexProps, ue2::NFAGraphEdgeProps>>>>::_Vector_impl_data" }
%"struct.std::_Vector_base<ue2::graph_detail::vertex_descriptor<ue2::ue2_graph<ue2::NGHolder, ue2::NFAGraphVertexProps, ue2::NFAGraphEdgeProps>>, std::allocator<ue2::graph_detail::vertex_descriptor<ue2::ue2_graph<ue2::NGHolder, ue2::NFAGraphVertexProps, ue2::NFAGraphEdgeProps>>>>::_Vector_impl_data" = type { ptr, ptr, ptr }
%"class.std::unordered_map" = type { %"class.std::_Hashtable" }
%"class.std::_Hashtable" = type { ptr, i64, %"struct.std::__detail::_Hash_node_base", i64, %"struct.std::__detail::_Prime_rehash_policy", ptr }
%"struct.std::__detail::_Hash_node_base" = type { ptr }
%"struct.std::__detail::_Prime_rehash_policy" = type { float, i64 }

; Function Attrs: mustprogress uwtable
define hidden noundef i32 @_ZN3ue218commonPrefixLengthERKNS_8NGHolderES2_(ptr noundef nonnull align 8 dereferenceable(136) %0, ptr noundef nonnull align 8 dereferenceable(136) %1) #3 personality ptr @__gxx_personality_v0 {
  %3 = alloca ptr, align 8
  %4 = alloca ptr, align 8
  %5 = alloca %"struct.ue2::(anonymous namespace)::ranking_info", align 8
  %6 = alloca %"struct.ue2::(anonymous namespace)::ranking_info", align 8
  %7 = alloca ptr, align 8
  %8 = alloca i32, align 4
  store ptr %0, ptr %3, align 8
  store ptr %1, ptr %4, align 8
  %9 = load ptr, ptr %3, align 8
  call void @llvm.lifetime.start.p0(i64 80, ptr %5) #20
  %10 = load ptr, ptr %3, align 8
  call void @_ZN3ue212_GLOBAL__N_112ranking_infoC2ERKNS_8NGHolderE(ptr noundef nonnull align 8 dereferenceable(80) %5, ptr noundef nonnull align 8 dereferenceable(136) %10)
  %11 = load ptr, ptr %4, align 8
  call void @llvm.lifetime.start.p0(i64 80, ptr %6) #20
  %12 = load ptr, ptr %4, align 8
  invoke void @_ZN3ue212_GLOBAL__N_112ranking_infoC2ERKNS_8NGHolderE(ptr noundef nonnull align 8 dereferenceable(80) %6, ptr noundef nonnull align 8 dereferenceable(136) %12)
          to label %13 unwind label %16

13:                                               ; preds = %2
  %14 = invoke noundef i32 @_ZN3ue2L18commonPrefixLengthERKNS_8NGHolderERKNS_12_GLOBAL__N_112ranking_infoES2_S6_(ptr noundef nonnull align 8 dereferenceable(136) %9, ptr noundef nonnull align 8 dereferenceable(80) %5, ptr noundef nonnull align 8 dereferenceable(136) %11, ptr noundef nonnull align 8 dereferenceable(80) %6)
          to label %15 unwind label %20

15:                                               ; preds = %13
  call void @_ZN3ue212_GLOBAL__N_112ranking_infoD2Ev(ptr noundef nonnull align 8 dereferenceable(80) %6) #20
  call void @llvm.lifetime.end.p0(i64 80, ptr %6) #20
  call void @_ZN3ue212_GLOBAL__N_112ranking_infoD2Ev(ptr noundef nonnull align 8 dereferenceable(80) %5) #20
  call void @llvm.lifetime.end.p0(i64 80, ptr %5) #20
  ret i32 %14

16:                                               ; preds = %2
  %17 = landingpad { ptr, i32 }
          cleanup
  %18 = extractvalue { ptr, i32 } %17, 0
  store ptr %18, ptr %7, align 8
  %19 = extractvalue { ptr, i32 } %17, 1
  store i32 %19, ptr %8, align 4
  br label %24

20:                                               ; preds = %13
  %21 = landingpad { ptr, i32 }
          cleanup
  %22 = extractvalue { ptr, i32 } %21, 0
  store ptr %22, ptr %7, align 8
  %23 = extractvalue { ptr, i32 } %21, 1
  store i32 %23, ptr %8, align 4
  call void @_ZN3ue212_GLOBAL__N_112ranking_infoD2Ev(ptr noundef nonnull align 8 dereferenceable(80) %6) #20
  br label %24

24:                                               ; preds = %20, %16
  call void @llvm.lifetime.end.p0(i64 80, ptr %6) #20
  call void @_ZN3ue212_GLOBAL__N_112ranking_infoD2Ev(ptr noundef nonnull align 8 dereferenceable(80) %5) #20
  call void @llvm.lifetime.end.p0(i64 80, ptr %5) #20
  br label %25

25:                                               ; preds = %24
  %26 = load ptr, ptr %7, align 8
  %27 = load i32, ptr %8, align 4
  %28 = insertvalue { ptr, i32 } poison, ptr %26, 0
  %29 = insertvalue { ptr, i32 } %28, i32 %27, 1
  resume { ptr, i32 } %29
}