; Function Attrs: mustprogress uwtable
define hidden noundef i32 @_ZN3ue218commonPrefixLengthERKNS_8NGHolderES2_(ptr noundef nonnull align 8 dereferenceable(136) %0, ptr noundef nonnull align 8 dereferenceable(136) %1) local_unnamed_addr #0 personality ptr @__gxx_personality_v0 {
  %3 = alloca %"struct.ue2::(anonymous namespace)::ranking_info", align 8
  %4 = alloca %"struct.ue2::(anonymous namespace)::ranking_info", align 8
  call void @llvm.lifetime.start.p0(i64 80, ptr nonnull %3) #22
  call fastcc void @_ZN3ue212_GLOBAL__N_112ranking_infoC2ERKNS_8NGHolderE(ptr noundef nonnull align 8 dereferenceable(80) %3, ptr noundef nonnull align 8 dereferenceable(136) %0)
  call void @llvm.lifetime.start.p0(i64 80, ptr nonnull %4) #22
  invoke fastcc void @_ZN3ue212_GLOBAL__N_112ranking_infoC2ERKNS_8NGHolderE(ptr noundef nonnull align 8 dereferenceable(80) %4, ptr noundef nonnull align 8 dereferenceable(136) %1)
          to label %5 unwind label %36

5:                                                ; preds = %2
  %6 = invoke fastcc noundef i32 @_ZN3ue2L18commonPrefixLengthERKNS_8NGHolderERKNS_12_GLOBAL__N_112ranking_infoES2_S6_(ptr noundef nonnull align 8 dereferenceable(136) %0, ptr noundef nonnull align 8 dereferenceable(80) %3, ptr noundef nonnull align 8 dereferenceable(136) %1, ptr noundef nonnull align 8 dereferenceable(80) %4)
          to label %7 unwind label %38

7:                                                ; preds = %5
  %8 = getelementptr inbounds nuw i8, ptr %4, i64 24
  %9 = getelementptr inbounds nuw i8, ptr %4, i64 40
  %10 = load ptr, ptr %9, align 8
  %.not5.i.i.i.i.i = icmp eq ptr %10, null
  br i1 %.not5.i.i.i.i.i, label %_ZNSt10_HashtableIN3ue212graph_detail17vertex_descriptorINS0_9ue2_graphINS0_8NGHolderENS0_19NFAGraphVertexPropsENS0_17NFAGraphEdgePropsEEEEESt4pairIKS8_jESaISB_ENSt8__detail10_Select1stESt8equal_toIS8_ESt4hashIS8_ENSD_18_Mod_range_hashingENSD_20_Default_ranged_hashENSD_20_Prime_rehash_policyENSD_17_Hashtable_traitsILb1ELb0ELb1EEEE5clearEv.exit.i.i.i, label %.lr.ph.i.i.i.i.i

.lr.ph.i.i.i.i.i:                                 ; preds = %7, %.lr.ph.i.i.i.i.i
  %.06.i.i.i.i.i = phi ptr [ %11, %.lr.ph.i.i.i.i.i ], [ %10, %7 ]
  %11 = load ptr, ptr %.06.i.i.i.i.i, align 8
  call void @_ZdlPv(ptr noundef nonnull %.06.i.i.i.i.i) #23
  %.not.i.i.i.i.i = icmp eq ptr %11, null
  br i1 %.not.i.i.i.i.i, label %_ZNSt10_HashtableIN3ue212graph_detail17vertex_descriptorINS0_9ue2_graphINS0_8NGHolderENS0_19NFAGraphVertexPropsENS0_17NFAGraphEdgePropsEEEEESt4pairIKS8_jESaISB_ENSt8__detail10_Select1stESt8equal_toIS8_ESt4hashIS8_ENSD_18_Mod_range_hashingENSD_20_Default_ranged_hashENSD_20_Prime_rehash_policyENSD_17_Hashtable_traitsILb1ELb0ELb1EEEE5clearEv.exit.i.i.i, label %.lr.ph.i.i.i.i.i, !llvm.loop !5

_ZNSt10_HashtableIN3ue212graph_detail17vertex_descriptorINS0_9ue2_graphINS0_8NGHolderENS0_19NFAGraphVertexPropsENS0_17NFAGraphEdgePropsEEEEESt4pairIKS8_jESaISB_ENSt8__detail10_Select1stESt8equal_toIS8_ESt4hashIS8_ENSD_18_Mod_range_hashingENSD_20_Default_ranged_hashENSD_20_Prime_rehash_policyENSD_17_Hashtable_traitsILb1ELb0ELb1EEEE5clearEv.exit.i.i.i: ; preds = %.lr.ph.i.i.i.i.i, %7
  %12 = load ptr, ptr %8, align 8
  %13 = getelementptr inbounds nuw i8, ptr %4, i64 32
  %14 = load i64, ptr %13, align 8
  %15 = shl i64 %14, 3
  call void @llvm.memset.p0.i64(ptr align 8 %12, i8 0, i64 %15, i1 false)
  call void @llvm.memset.p0.i64(ptr noundef nonnull align 8 dereferenceable(16) %9, i8 0, i64 16, i1 false)
  %16 = load ptr, ptr %8, align 8
  %17 = getelementptr inbounds nuw i8, ptr %4, i64 72
  %18 = icmp eq ptr %16, %17
  br i1 %18, label %_ZNSt13unordered_mapIN3ue212graph_detail17vertex_descriptorINS0_9ue2_graphINS0_8NGHolderENS0_19NFAGraphVertexPropsENS0_17NFAGraphEdgePropsEEEEEjSt4hashIS8_ESt8equal_toIS8_ESaISt4pairIKS8_jEEED2Ev.exit.i, label %19

19:                                               ; preds = %_ZNSt10_HashtableIN3ue212graph_detail17vertex_descriptorINS0_9ue2_graphINS0_8NGHolderENS0_19NFAGraphVertexPropsENS0_17NFAGraphEdgePropsEEEEESt4pairIKS8_jESaISB_ENSt8__detail10_Select1stESt8equal_toIS8_ESt4hashIS8_ENSD_18_Mod_range_hashingENSD_20_Default_ranged_hashENSD_20_Prime_rehash_policyENSD_17_Hashtable_traitsILb1ELb0ELb1EEEE5clearEv.exit.i.i.i
  call void @_ZdlPv(ptr noundef %16) #23
  br label %_ZNSt13unordered_mapIN3ue212graph_detail17vertex_descriptorINS0_9ue2_graphINS0_8NGHolderENS0_19NFAGraphVertexPropsENS0_17NFAGraphEdgePropsEEEEEjSt4hashIS8_ESt8equal_toIS8_ESaISt4pairIKS8_jEEED2Ev.exit.i

_ZNSt13unordered_mapIN3ue212graph_detail17vertex_descriptorINS0_9ue2_graphINS0_8NGHolderENS0_19NFAGraphVertexPropsENS0_17NFAGraphEdgePropsEEEEEjSt4hashIS8_ESt8equal_toIS8_ESaISt4pairIKS8_jEEED2Ev.exit.i: ; preds = %19, %_ZNSt10_HashtableIN3ue212graph_detail17vertex_descriptorINS0_9ue2_graphINS0_8NGHolderENS0_19NFAGraphVertexPropsENS0_17NFAGraphEdgePropsEEEEESt4pairIKS8_jESaISB_ENSt8__detail10_Select1stESt8equal_toIS8_ESt4hashIS8_ENSD_18_Mod_range_hashingENSD_20_Default_ranged_hashENSD_20_Prime_rehash_policyENSD_17_Hashtable_traitsILb1ELb0ELb1EEEE5clearEv.exit.i.i.i
  %20 = load ptr, ptr %4, align 8
  %.not.i.i.i.i = icmp eq ptr %20, null
  br i1 %.not.i.i.i.i, label %_ZN3ue212_GLOBAL__N_112ranking_infoD2Ev.exit, label %21

21:                                               ; preds = %_ZNSt13unordered_mapIN3ue212graph_detail17vertex_descriptorINS0_9ue2_graphINS0_8NGHolderENS0_19NFAGraphVertexPropsENS0_17NFAGraphEdgePropsEEEEEjSt4hashIS8_ESt8equal_toIS8_ESaISt4pairIKS8_jEEED2Ev.exit.i
  call void @_ZdlPv(ptr noundef nonnull %20) #23
  br label %_ZN3ue212_GLOBAL__N_112ranking_infoD2Ev.exit

_ZN3ue212_GLOBAL__N_112ranking_infoD2Ev.exit:     ; preds = %_ZNSt13unordered_mapIN3ue212graph_detail17vertex_descriptorINS0_9ue2_graphINS0_8NGHolderENS0_19NFAGraphVertexPropsENS0_17NFAGraphEdgePropsEEEEEjSt4hashIS8_ESt8equal_toIS8_ESaISt4pairIKS8_jEEED2Ev.exit.i, %21
  call void @llvm.lifetime.end.p0(i64 80, ptr nonnull %4) #22
  %22 = getelementptr inbounds nuw i8, ptr %3, i64 24
  %23 = getelementptr inbounds nuw i8, ptr %3, i64 40
  %24 = load ptr, ptr %23, align 8
  %.not5.i.i.i.i.i7 = icmp eq ptr %24, null
  br i1 %.not5.i.i.i.i.i7, label %_ZNSt10_HashtableIN3ue212graph_detail17vertex_descriptorINS0_9ue2_graphINS0_8NGHolderENS0_19NFAGraphVertexPropsENS0_17NFAGraphEdgePropsEEEEESt4pairIKS8_jESaISB_ENSt8__detail10_Select1stESt8equal_toIS8_ESt4hashIS8_ENSD_18_Mod_range_hashingENSD_20_Default_ranged_hashENSD_20_Prime_rehash_policyENSD_17_Hashtable_traitsILb1ELb0ELb1EEEE5clearEv.exit.i.i.i11, label %.lr.ph.i.i.i.i.i8

.lr.ph.i.i.i.i.i8:                                ; preds = %_ZN3ue212_GLOBAL__N_112ranking_infoD2Ev.exit, %.lr.ph.i.i.i.i.i8
  %.06.i.i.i.i.i9 = phi ptr [ %25, %.lr.ph.i.i.i.i.i8 ], [ %24, %_ZN3ue212_GLOBAL__N_112ranking_infoD2Ev.exit ]
  %25 = load ptr, ptr %.06.i.i.i.i.i9, align 8
  call void @_ZdlPv(ptr noundef nonnull %.06.i.i.i.i.i9) #23
  %.not.i.i.i.i.i10 = icmp eq ptr %25, null
  br i1 %.not.i.i.i.i.i10, label %_ZNSt10_HashtableIN3ue212graph_detail17vertex_descriptorINS0_9ue2_graphINS0_8NGHolderENS0_19NFAGraphVertexPropsENS0_17NFAGraphEdgePropsEEEEESt4pairIKS8_jESaISB_ENSt8__detail10_Select1stESt8equal_toIS8_ESt4hashIS8_ENSD_18_Mod_range_hashingENSD_20_Default_ranged_hashENSD_20_Prime_rehash_policyENSD_17_Hashtable_traitsILb1ELb0ELb1EEEE5clearEv.exit.i.i.i11, label %.lr.ph.i.i.i.i.i8, !llvm.loop !5

_ZNSt10_HashtableIN3ue212graph_detail17vertex_descriptorINS0_9ue2_graphINS0_8NGHolderENS0_19NFAGraphVertexPropsENS0_17NFAGraphEdgePropsEEEEESt4pairIKS8_jESaISB_ENSt8__detail10_Select1stESt8equal_toIS8_ESt4hashIS8_ENSD_18_Mod_range_hashingENSD_20_Default_ranged_hashENSD_20_Prime_rehash_policyENSD_17_Hashtable_traitsILb1ELb0ELb1EEEE5clearEv.exit.i.i.i11: ; preds = %.lr.ph.i.i.i.i.i8, %_ZN3ue212_GLOBAL__N_112ranking_infoD2Ev.exit
  %26 = load ptr, ptr %22, align 8
  %27 = getelementptr inbounds nuw i8, ptr %3, i64 32
  %28 = load i64, ptr %27, align 8
  %29 = shl i64 %28, 3
  call void @llvm.memset.p0.i64(ptr align 8 %26, i8 0, i64 %29, i1 false)
  call void @llvm.memset.p0.i64(ptr noundef nonnull align 8 dereferenceable(16) %23, i8 0, i64 16, i1 false)
  %30 = load ptr, ptr %22, align 8
  %31 = getelementptr inbounds nuw i8, ptr %3, i64 72
  %32 = icmp eq ptr %30, %31
  br i1 %32, label %_ZNSt13unordered_mapIN3ue212graph_detail17vertex_descriptorINS0_9ue2_graphINS0_8NGHolderENS0_19NFAGraphVertexPropsENS0_17NFAGraphEdgePropsEEEEEjSt4hashIS8_ESt8equal_toIS8_ESaISt4pairIKS8_jEEED2Ev.exit.i12, label %33

33:                                               ; preds = %_ZNSt10_HashtableIN3ue212graph_detail17vertex_descriptorINS0_9ue2_graphINS0_8NGHolderENS0_19NFAGraphVertexPropsENS0_17NFAGraphEdgePropsEEEEESt4pairIKS8_jESaISB_ENSt8__detail10_Select1stESt8equal_toIS8_ESt4hashIS8_ENSD_18_Mod_range_hashingENSD_20_Default_ranged_hashENSD_20_Prime_rehash_policyENSD_17_Hashtable_traitsILb1ELb0ELb1EEEE5clearEv.exit.i.i.i11
  call void @_ZdlPv(ptr noundef %30) #23
  br label %_ZNSt13unordered_mapIN3ue212graph_detail17vertex_descriptorINS0_9ue2_graphINS0_8NGHolderENS0_19NFAGraphVertexPropsENS0_17NFAGraphEdgePropsEEEEEjSt4hashIS8_ESt8equal_toIS8_ESaISt4pairIKS8_jEEED2Ev.exit.i12

_ZNSt13unordered_mapIN3ue212graph_detail17vertex_descriptorINS0_9ue2_graphINS0_8NGHolderENS0_19NFAGraphVertexPropsENS0_17NFAGraphEdgePropsEEEEEjSt4hashIS8_ESt8equal_toIS8_ESaISt4pairIKS8_jEEED2Ev.exit.i12: ; preds = %33, %_ZNSt10_HashtableIN3ue212graph_detail17vertex_descriptorINS0_9ue2_graphINS0_8NGHolderENS0_19NFAGraphVertexPropsENS0_17NFAGraphEdgePropsEEEEESt4pairIKS8_jESaISB_ENSt8__detail10_Select1stESt8equal_toIS8_ESt4hashIS8_ENSD_18_Mod_range_hashingENSD_20_Default_ranged_hashENSD_20_Prime_rehash_policyENSD_17_Hashtable_traitsILb1ELb0ELb1EEEE5clearEv.exit.i.i.i11
  %34 = load ptr, ptr %3, align 8
  %.not.i.i.i.i13 = icmp eq ptr %34, null
  br i1 %.not.i.i.i.i13, label %_ZN3ue212_GLOBAL__N_112ranking_infoD2Ev.exit14, label %35

35:                                               ; preds = %_ZNSt13unordered_mapIN3ue212graph_detail17vertex_descriptorINS0_9ue2_graphINS0_8NGHolderENS0_19NFAGraphVertexPropsENS0_17NFAGraphEdgePropsEEEEEjSt4hashIS8_ESt8equal_toIS8_ESaISt4pairIKS8_jEEED2Ev.exit.i12
  call void @_ZdlPv(ptr noundef nonnull %34) #23
  br label %_ZN3ue212_GLOBAL__N_112ranking_infoD2Ev.exit14

_ZN3ue212_GLOBAL__N_112ranking_infoD2Ev.exit14:   ; preds = %_ZNSt13unordered_mapIN3ue212graph_detail17vertex_descriptorINS0_9ue2_graphINS0_8NGHolderENS0_19NFAGraphVertexPropsENS0_17NFAGraphEdgePropsEEEEEjSt4hashIS8_ESt8equal_toIS8_ESaISt4pairIKS8_jEEED2Ev.exit.i12, %35
  call void @llvm.lifetime.end.p0(i64 80, ptr nonnull %3) #22
  ret i32 %6

36:                                               ; preds = %2
  %37 = landingpad { ptr, i32 }
          cleanup
  br label %40

38:                                               ; preds = %5
  %39 = landingpad { ptr, i32 }
          cleanup
  call fastcc void @_ZN3ue212_GLOBAL__N_112ranking_infoD2Ev(ptr noundef nonnull align 8 dereferenceable(80) %4) #22
  br label %40

40:                                               ; preds = %38, %36
  %.pn = phi { ptr, i32 } [ %39, %38 ], [ %37, %36 ]
  call void @llvm.lifetime.end.p0(i64 80, ptr nonnull %4) #22
  call fastcc void @_ZN3ue212_GLOBAL__N_112ranking_infoD2Ev(ptr noundef nonnull align 8 dereferenceable(80) %3) #22
  call void @llvm.lifetime.end.p0(i64 80, ptr nonnull %3) #22
  resume { ptr, i32 } %.pn
}